target datalayout = "e-m:e-p270:32:32-p271:32:32-p272:64:64-i64:64-i128:128-f80:128-n8:16:32:64-S128"
target triple = "x86_64-pc-linux-gnu"

%"class.testing::ExitedWithCode" = type { i32 }

; Function Attrs: mustprogress nounwind uwtable
define noundef zeroext i1 @_ZNK7testing14ExitedWithCodeclEi(ptr noundef nonnull align 4 dereferenceable(4) %0, i32 noundef %1) #7 align 2 {
  %3 = alloca ptr, align 8
  %4 = alloca i32, align 4
  store ptr %0, ptr %3, align 8, !tbaa !37
  store i32 %1, ptr %4, align 4, !tbaa !39
  %5 = load ptr, ptr %3, align 8
  %6 = load i32, ptr %4, align 4, !tbaa !39
  %7 = and i32 %6, 127
  %8 = icmp eq i32 %7, 0
  br i1 %8, label %9, label %16

9:                                                ; preds = %2
  %10 = load i32, ptr %4, align 4, !tbaa !39
  %11 = and i32 %10, 65280
  %12 = ashr i32 %11, 8
  %13 = getelementptr inbounds nuw %"class.testing::ExitedWithCode", ptr %5, i32 0, i32 0
  %14 = load i32, ptr %13, align 4, !tbaa !41
  %15 = icmp eq i32 %12, %14
  br label %16

16:                                               ; preds = %9, %2
  %17 = phi i1 [ false, %2 ], [ %15, %9 ]
  ret i1 %17
}